target datalayout = "e-m:e-p270:32:32-p271:32:32-p272:64:64-i64:64-i128:128-f80:128-n8:16:32:64-S128"
target triple = "x86_64-pc-linux-gnu"

%struct._zend_ini_scanner_globals = type { ptr, ptr, i32, ptr, ptr, ptr, ptr, ptr, i32, %struct._zend_stack, ptr, i32, i32 }
%struct._zend_stack = type { i32, i32, i32, ptr }
%struct._zend_refcounted_h = type { i32, %union.anon }
%union.anon = type { i32 }

@ini_scanner_globals = global %struct._zend_ini_scanner_globals zeroinitializer, align 8

; Function Attrs: nounwind uwtable
define hidden void @shutdown_ini_scanner() #0 {
  %1 = alloca ptr, align 8
  %2 = alloca i32, align 4
  %3 = alloca i32, align 4
  %4 = alloca ptr, align 8
  call void @zend_stack_destroy(ptr noundef getelementptr inbounds (%struct._zend_ini_scanner_globals, ptr @ini_scanner_globals, i32 0, i32 9))
  %5 = load ptr, ptr getelementptr inbounds (%struct._zend_ini_scanner_globals, ptr @ini_scanner_globals, i32 0, i32 10), align 8
  %6 = icmp ne ptr %5, null
  br i1 %6, label %7, label %40

7:                                                ; preds = %0
  %8 = load ptr, ptr getelementptr inbounds (%struct._zend_ini_scanner_globals, ptr @ini_scanner_globals, i32 0, i32 10), align 8
  store ptr %8, ptr %4, align 8
  %9 = load ptr, ptr %4, align 8
  %10 = getelementptr inbounds %struct._zend_refcounted_h, ptr %9, i32 0, i32 1
  %11 = load i32, ptr %10, align 4
  store i32 %11, ptr %2, align 4
  %12 = load i32, ptr %2, align 4
  %13 = and i32 %12, 1008
  %14 = and i32 %13, 64
  %15 = icmp ne i32 %14, 0
  br i1 %15, label %39, label %16

16:                                               ; preds = %7
  %17 = load ptr, ptr %4, align 8
  store ptr %17, ptr %1, align 8
  %18 = load ptr, ptr %1, align 8
  %19 = load i32, ptr %18, align 4
  %20 = icmp ugt i32 %19, 0
  call void @llvm.assume(i1 %20)
  %21 = load ptr, ptr %1, align 8
  %22 = load i32, ptr %21, align 4
  %23 = add i32 %22, -1
  store i32 %23, ptr %21, align 4
  %24 = icmp eq i32 %23, 0
  br i1 %24, label %25, label %38

25:                                               ; preds = %16
  %26 = load ptr, ptr %4, align 8
  %27 = getelementptr inbounds %struct._zend_refcounted_h, ptr %26, i32 0, i32 1
  %28 = load i32, ptr %27, align 4
  store i32 %28, ptr %3, align 4
  %29 = load i32, ptr %3, align 4
  %30 = and i32 %29, 1008
  %31 = and i32 %30, 128
  %32 = icmp ne i32 %31, 0
  br i1 %32, label %33, label %35

33:                                               ; preds = %25
  %34 = load ptr, ptr %4, align 8
  call void @free(ptr noundef %34) #8
  br label %37

35:                                               ; preds = %25
  %36 = load ptr, ptr %4, align 8
  call void @_efree(ptr noundef %36) #8
  br label %37

37:                                               ; preds = %35, %33
  br label %38

38:                                               ; preds = %37, %16
  br label %39

39:                                               ; preds = %38, %7
  br label %40

40:                                               ; preds = %39, %0
  ret void
}