; Function Attrs: nounwind uwtable
define hidden void @shutdown_ini_scanner() local_unnamed_addr #0 {
  tail call void @zend_stack_destroy(ptr noundef nonnull getelementptr inbounds (%struct._zend_ini_scanner_globals, ptr @ini_scanner_globals, i64 0, i32 9)) #10
  %1 = load ptr, ptr getelementptr inbounds (%struct._zend_ini_scanner_globals, ptr @ini_scanner_globals, i64 0, i32 10), align 8
  %.not = icmp eq ptr %1, null
  br i1 %.not, label %15, label %2

2:                                                ; preds = %0
  %3 = getelementptr inbounds i8, ptr %1, i64 4
  %4 = load i32, ptr %3, align 4
  %5 = and i32 %4, 64
  %.not8 = icmp eq i32 %5, 0
  br i1 %.not8, label %6, label %15

6:                                                ; preds = %2
  %7 = load i32, ptr %1, align 4
  %8 = icmp ne i32 %7, 0
  tail call void @llvm.assume(i1 %8)
  %9 = add i32 %7, -1
  store i32 %9, ptr %1, align 4
  %10 = icmp eq i32 %9, 0
  br i1 %10, label %11, label %15

11:                                               ; preds = %6
  %12 = and i32 %4, 128
  %.not9 = icmp eq i32 %12, 0
  br i1 %.not9, label %14, label %13

13:                                               ; preds = %11
  tail call void @free(ptr noundef nonnull %1) #10
  br label %15

14:                                               ; preds = %11
  tail call void @_efree(ptr noundef nonnull %1) #10
  br label %15

15:                                               ; preds = %2, %13, %14, %6, %0
  ret void
}